target datalayout = "e-m:e-p270:32:32-p271:32:32-p272:64:64-i64:64-i128:128-f80:128-n8:16:32:64-S128"
target triple = "x86_64-unknown-linux-gnu"

%struct.UHCIState = type { %struct.PCIDevice, %struct.MemoryRegion, %struct.USBBus, i16, i16, i16, i16, i32, i8, i8, i64, ptr, ptr, i32, i32, i8, [2 x %struct.UHCIPort], ptr, i32, %union.anon.8, i8, ptr, i32, i32 }
%struct.PCIDevice = type { %struct.DeviceState, i8, i8, ptr, ptr, ptr, ptr, ptr, i32, %struct.PCIReqIDCache, [64 x i8], [7 x %struct.PCIIORegion], %struct.AddressSpace, %struct.MemoryRegion, %struct.MemoryRegion, ptr, ptr, [3 x ptr], i8, i8, i32, i8, i32, ptr, ptr, ptr, ptr, ptr, ptr, %struct.MemoryRegion, %struct.MemoryRegion, %struct.MemoryRegion, ptr, i8, i32, i8, %struct.PCIExpressDevice, ptr, ptr, i32, i8, %struct.MemoryRegion, i32, ptr, ptr, ptr, ptr, ptr, i32 }
%struct.DeviceState = type { %struct.Object, ptr, ptr, i8, i8, i64, ptr, i32, i8, ptr, %struct.NamedGPIOListHead, %struct.NamedClockListHead, %struct.BusStateHead, i32, i32, i32, %struct.ResettableState, ptr, %struct.MemReentrancyGuard }
%struct.Object = type { ptr, ptr, ptr, i32, ptr }
%struct.NamedGPIOListHead = type { ptr }
%struct.NamedClockListHead = type { ptr }
%struct.BusStateHead = type { ptr }
%struct.ResettableState = type { i32, i8, i8 }
%struct.MemReentrancyGuard = type { i8 }
%struct.PCIReqIDCache = type { ptr, i32 }
%struct.PCIIORegion = type { i64, i64, i8, ptr, ptr }
%struct.AddressSpace = type { %struct.rcu_head, ptr, ptr, ptr, i32, i32, ptr, %union.anon, %union.anon.0 }
%struct.rcu_head = type { ptr, ptr }
%union.anon = type { %struct.QTailQLink }
%struct.QTailQLink = type { ptr, ptr }
%union.anon.0 = type { %struct.QTailQLink }
%struct.PCIExpressDevice = type { i8, i8, i8, i16, %struct.PCIEAERLog, i16, i16, i16, %struct.PCIESriovPF, %struct.PCIESriovVF }
%struct.PCIEAERLog = type { i16, i16, ptr }
%struct.PCIESriovPF = type { i16, [7 x i8], ptr, ptr }
%struct.PCIESriovVF = type { ptr, i16 }
%struct.MemoryRegion = type { %struct.Object, i8, i8, i8, i8, i8, i8, i8, i8, i8, i8, ptr, ptr, ptr, ptr, ptr, ptr, i32, i128, i64, ptr, i64, i8, i8, i8, i8, i8, ptr, i64, i32, %union.anon.1, %union.anon.2, %union.anon.3, ptr, i32, ptr, ptr, i8 }
%union.anon.1 = type { %struct.QTailQLink }
%union.anon.2 = type { %struct.QTailQLink }
%union.anon.3 = type { %struct.QTailQLink }
%struct.USBBus = type { %struct.BusState, ptr, i32, i32, i32, %union.anon.4, %union.anon.5, %union.anon.6 }
%struct.BusState = type { %struct.Object, ptr, ptr, ptr, i32, i8, i8, i32, %union.BusChildHead, %struct.BusStateEntry, %struct.ResettableState }
%union.BusChildHead = type { %struct.QTailQLink }
%struct.BusStateEntry = type { ptr, ptr }
%union.anon.4 = type { %struct.QTailQLink }
%union.anon.5 = type { %struct.QTailQLink }
%union.anon.6 = type { %struct.QTailQLink }
%struct.UHCIPort = type { %struct.USBPort, i16 }
%struct.USBPort = type { ptr, i32, i32, [16 x i8], ptr, ptr, i32, %union.anon.7 }
%union.anon.7 = type { %struct.QTailQLink }
%union.anon.8 = type { %struct.QTailQLink }
%struct.UHCIAsync = type { %struct.USBPacket, [64 x i8], ptr, ptr, %union.anon.20, i32, i8 }
%struct.USBPacket = type { i32, i64, ptr, i32, %struct.QEMUIOVector, i64, i8, i8, i32, i32, i32, ptr, %union.anon.18, %union.anon.19 }
%struct.QEMUIOVector = type { ptr, i32, %union.anon.15 }
%union.anon.15 = type { %struct.anon.16 }
%struct.anon.16 = type { i32, %struct.iovec }
%struct.iovec = type { ptr, i64 }
%union.anon.18 = type { %struct.QTailQLink }
%union.anon.19 = type { %struct.QTailQLink }
%union.anon.20 = type { %struct.QTailQLink }
%struct.UHCIQueue = type { i32, i32, ptr, ptr, %union.anon.13, %union.anon.14, i8 }
%union.anon.13 = type { %struct.QTailQLink }
%union.anon.14 = type { %struct.QTailQLink }

; Function Attrs: nounwind sspstrong uwtable
define internal void @uhci_async_complete(ptr noundef %port, ptr noundef %packet) #0 {
entry:
  %port.addr = alloca ptr, align 8
  %packet.addr = alloca ptr, align 8
  %async = alloca ptr, align 8
  %__mptr = alloca ptr, align 8
  %tmp = alloca ptr, align 8
  %s = alloca ptr, align 8
  store ptr %port, ptr %port.addr, align 8
  store ptr %packet, ptr %packet.addr, align 8
  %0 = load ptr, ptr %packet.addr, align 8
  store ptr %0, ptr %__mptr, align 8
  %1 = load ptr, ptr %__mptr, align 8
  %add.ptr = getelementptr i8, ptr %1, i64 0
  store ptr %add.ptr, ptr %tmp, align 8
  %2 = load ptr, ptr %tmp, align 8
  store ptr %2, ptr %async, align 8
  %3 = load ptr, ptr %async, align 8
  %queue = getelementptr inbounds %struct.UHCIAsync, ptr %3, i32 0, i32 3
  %4 = load ptr, ptr %queue, align 8
  %uhci = getelementptr inbounds %struct.UHCIQueue, ptr %4, i32 0, i32 2
  %5 = load ptr, ptr %uhci, align 8
  store ptr %5, ptr %s, align 8
  %6 = load ptr, ptr %packet.addr, align 8
  %status = getelementptr inbounds %struct.USBPacket, ptr %6, i32 0, i32 8
  %7 = load i32, ptr %status, align 4
  %cmp = icmp eq i32 %7, -8
  br i1 %cmp, label %if.then, label %if.end

if.then:                                          ; preds = %entry
  %8 = load ptr, ptr %async, align 8
  call void @uhci_async_cancel(ptr noundef %8)
  br label %return

if.end:                                           ; preds = %entry
  %9 = load ptr, ptr %async, align 8
  %done = getelementptr inbounds %struct.UHCIAsync, ptr %9, i32 0, i32 6
  store i8 1, ptr %done, align 4
  %10 = load ptr, ptr %s, align 8
  %completions_only = getelementptr inbounds %struct.UHCIState, ptr %10, i32 0, i32 15
  store i8 1, ptr %completions_only, align 16
  %11 = load ptr, ptr %s, align 8
  %bh = getelementptr inbounds %struct.UHCIState, ptr %11, i32 0, i32 12
  %12 = load ptr, ptr %bh, align 16
  call void @qemu_bh_schedule(ptr noundef %12)
  br label %return

return:                                           ; preds = %if.end, %if.then
  ret void
}