; Function Attrs: nounwind sspstrong uwtable
define internal void @uhci_async_complete(ptr readnone captures(none) %port, ptr noundef %packet) #0 {
entry:
  %status = getelementptr inbounds nuw i8, ptr %packet, i64 84
  %0 = load i32, ptr %status, align 4
  %cmp = icmp eq i32 %0, -8
  br i1 %cmp, label %if.then, label %if.end

if.then:                                          ; preds = %entry
  tail call fastcc void @uhci_async_cancel(ptr noundef nonnull %packet)
  br label %return

if.end:                                           ; preds = %entry
  %queue = getelementptr inbounds nuw i8, ptr %packet, i64 208
  %1 = load ptr, ptr %queue, align 8
  %uhci = getelementptr inbounds nuw i8, ptr %1, i64 8
  %2 = load ptr, ptr %uhci, align 8
  %done = getelementptr inbounds nuw i8, ptr %packet, i64 236
  store i8 1, ptr %done, align 4
  %completions_only = getelementptr inbounds nuw i8, ptr %2, i64 3120
  store i8 1, ptr %completions_only, align 16
  %bh = getelementptr inbounds nuw i8, ptr %2, i64 3104
  %3 = load ptr, ptr %bh, align 16
  tail call void @qemu_bh_schedule(ptr noundef %3) #11
  br label %return

return:                                           ; preds = %if.end, %if.then
  ret void
}